target datalayout = "e-m:e-p270:32:32-p271:32:32-p272:64:64-i64:64-i128:128-f80:128-n8:16:32:64-S128"
target triple = "x86_64-pc-linux-gnu"

%struct.conn = type { ptr, i32, i8, i8, i8, i8, i8, i8, i8, i8, ptr, i32, i32, i32, %struct.event, i16, i16, ptr, ptr, i32, i32, ptr, ptr, ptr, i32, ptr, i32, i32, i32, i32, i32, i32, i32, %struct.sockaddr_in6, i32, i8, %struct.anon.8, %union.protocol_binary_request_header, i64, i64, i16, i32, i32, ptr, ptr, ptr, ptr, ptr, ptr }
%struct.event = type { %struct.event_callback, %union.anon.0, i32, ptr, %union.anon.2, i16, i16, %struct.timeval }
%struct.event_callback = type { %struct.anon, i16, i8, i8, %union.anon, ptr }
%struct.anon = type { ptr, ptr }
%union.anon = type { ptr }
%union.anon.0 = type { %struct.anon.1 }
%struct.anon.1 = type { ptr, ptr }
%union.anon.2 = type { %struct.anon.3 }
%struct.anon.3 = type { %struct.anon.4, %struct.timeval }
%struct.anon.4 = type { ptr, ptr }
%struct.timeval = type { i64, i64 }
%struct.sockaddr_in6 = type { i16, i16, i32, %struct.in6_addr, i32 }
%struct.in6_addr = type { %union.anon.7 }
%union.anon.7 = type { [4 x i32] }
%struct.anon.8 = type { ptr, i64, i64 }
%union.protocol_binary_request_header = type { %struct.anon.9 }
%struct.anon.9 = type { i8, i8, i16, i8, i8, i16, i32, i32, i64 }
%struct.token_s = type { ptr, i64 }

@.str.15 = private unnamed_addr constant [6 x i8] c"ERROR\00", align 1
@hash = external global ptr, align 8
@.str.98 = private unnamed_addr constant [3 x i8] c"OK\00", align 1
@.str.125 = private unnamed_addr constant [5 x i8] c"lock\00", align 1
@.str.126 = private unnamed_addr constant [7 x i8] c"unlock\00", align 1
@.str.127 = private unnamed_addr constant [4 x i8] c"ref\00", align 1
@.str.128 = private unnamed_addr constant [5 x i8] c"MISS\00", align 1
@.str.129 = private unnamed_addr constant [6 x i8] c"unref\00", align 1

; Function Attrs: nounwind uwtable
define internal void @process_debugitem_command(ptr noundef %0, ptr noundef %1, i64 noundef %2) #0 {
  %4 = alloca ptr, align 8
  %5 = alloca ptr, align 8
  %6 = alloca i64, align 8
  %7 = alloca i32, align 4
  %8 = alloca i32, align 4
  %9 = alloca ptr, align 8
  %10 = alloca i32, align 4
  %11 = alloca ptr, align 8
  store ptr %0, ptr %4, align 8, !tbaa !4
  store ptr %1, ptr %5, align 8, !tbaa !77
  store i64 %2, ptr %6, align 8, !tbaa !44
  %12 = load ptr, ptr %5, align 8, !tbaa !77
  %13 = getelementptr inbounds %struct.token_s, ptr %12, i64 1
  %14 = getelementptr inbounds nuw %struct.token_s, ptr %13, i32 0, i32 0
  %15 = load ptr, ptr %14, align 8, !tbaa !70
  %16 = call i32 @strcmp(ptr noundef %15, ptr noundef @.str.125) #9
  %17 = icmp eq i32 %16, 0
  br i1 %17, label %18, label %30

18:                                               ; preds = %3
  call void @llvm.lifetime.start.p0(i64 4, ptr %7) #8
  %19 = load ptr, ptr @hash, align 8, !tbaa !122
  %20 = load ptr, ptr %5, align 8, !tbaa !77
  %21 = getelementptr inbounds %struct.token_s, ptr %20, i64 2
  %22 = getelementptr inbounds nuw %struct.token_s, ptr %21, i32 0, i32 0
  %23 = load ptr, ptr %22, align 8, !tbaa !70
  %24 = load ptr, ptr %5, align 8, !tbaa !77
  %25 = getelementptr inbounds %struct.token_s, ptr %24, i64 2
  %26 = getelementptr inbounds nuw %struct.token_s, ptr %25, i32 0, i32 1
  %27 = load i64, ptr %26, align 8, !tbaa !79
  %28 = call i32 %19(ptr noundef %23, i64 noundef %27)
  store i32 %28, ptr %7, align 4, !tbaa !30
  %29 = load i32, ptr %7, align 4, !tbaa !30
  call void @item_lock(i32 noundef %29)
  call void @llvm.lifetime.end.p0(i64 4, ptr %7) #8
  br label %112

30:                                               ; preds = %3
  %31 = load ptr, ptr %5, align 8, !tbaa !77
  %32 = getelementptr inbounds %struct.token_s, ptr %31, i64 1
  %33 = getelementptr inbounds nuw %struct.token_s, ptr %32, i32 0, i32 0
  %34 = load ptr, ptr %33, align 8, !tbaa !70
  %35 = call i32 @strcmp(ptr noundef %34, ptr noundef @.str.126) #9
  %36 = icmp eq i32 %35, 0
  br i1 %36, label %37, label %49

37:                                               ; preds = %30
  call void @llvm.lifetime.start.p0(i64 4, ptr %8) #8
  %38 = load ptr, ptr @hash, align 8, !tbaa !122
  %39 = load ptr, ptr %5, align 8, !tbaa !77
  %40 = getelementptr inbounds %struct.token_s, ptr %39, i64 2
  %41 = getelementptr inbounds nuw %struct.token_s, ptr %40, i32 0, i32 0
  %42 = load ptr, ptr %41, align 8, !tbaa !70
  %43 = load ptr, ptr %5, align 8, !tbaa !77
  %44 = getelementptr inbounds %struct.token_s, ptr %43, i64 2
  %45 = getelementptr inbounds nuw %struct.token_s, ptr %44, i32 0, i32 1
  %46 = load i64, ptr %45, align 8, !tbaa !79
  %47 = call i32 %38(ptr noundef %42, i64 noundef %46)
  store i32 %47, ptr %8, align 4, !tbaa !30
  %48 = load i32, ptr %8, align 4, !tbaa !30
  call void @item_unlock(i32 noundef %48)
  call void @llvm.lifetime.end.p0(i64 4, ptr %8) #8
  br label %111

49:                                               ; preds = %30
  %50 = load ptr, ptr %5, align 8, !tbaa !77
  %51 = getelementptr inbounds %struct.token_s, ptr %50, i64 1
  %52 = getelementptr inbounds nuw %struct.token_s, ptr %51, i32 0, i32 0
  %53 = load ptr, ptr %52, align 8, !tbaa !70
  %54 = call i32 @strcmp(ptr noundef %53, ptr noundef @.str.127) #9
  %55 = icmp eq i32 %54, 0
  br i1 %55, label %56, label %77

56:                                               ; preds = %49
  call void @llvm.lifetime.start.p0(i64 8, ptr %9) #8
  %57 = load ptr, ptr %5, align 8, !tbaa !77
  %58 = getelementptr inbounds %struct.token_s, ptr %57, i64 2
  %59 = getelementptr inbounds nuw %struct.token_s, ptr %58, i32 0, i32 0
  %60 = load ptr, ptr %59, align 8, !tbaa !70
  %61 = load ptr, ptr %5, align 8, !tbaa !77
  %62 = getelementptr inbounds %struct.token_s, ptr %61, i64 2
  %63 = getelementptr inbounds nuw %struct.token_s, ptr %62, i32 0, i32 1
  %64 = load i64, ptr %63, align 8, !tbaa !79
  %65 = load ptr, ptr %4, align 8, !tbaa !4
  %66 = getelementptr inbounds nuw %struct.conn, ptr %65, i32 0, i32 44
  %67 = load ptr, ptr %66, align 8, !tbaa !32
  %68 = call ptr @item_get(ptr noundef %60, i64 noundef %64, ptr noundef %67, i1 noundef zeroext false)
  store ptr %68, ptr %9, align 8, !tbaa !27
  %69 = load ptr, ptr %9, align 8, !tbaa !27
  %70 = icmp eq ptr %69, null
  br i1 %70, label %71, label %73

71:                                               ; preds = %56
  %72 = load ptr, ptr %4, align 8, !tbaa !4
  call void @out_string(ptr noundef %72, ptr noundef @.str.128)
  store i32 1, ptr %10, align 4
  br label %74

73:                                               ; preds = %56
  store i32 0, ptr %10, align 4
  br label %74

74:                                               ; preds = %73, %71
  call void @llvm.lifetime.end.p0(i64 8, ptr %9) #8
  %75 = load i32, ptr %10, align 4
  switch i32 %75, label %115 [
    i32 0, label %76
    i32 1, label %114
  ]

76:                                               ; preds = %74
  br label %110

77:                                               ; preds = %49
  %78 = load ptr, ptr %5, align 8, !tbaa !77
  %79 = getelementptr inbounds %struct.token_s, ptr %78, i64 1
  %80 = getelementptr inbounds nuw %struct.token_s, ptr %79, i32 0, i32 0
  %81 = load ptr, ptr %80, align 8, !tbaa !70
  %82 = call i32 @strcmp(ptr noundef %81, ptr noundef @.str.129) #9
  %83 = icmp eq i32 %82, 0
  br i1 %83, label %84, label %107

84:                                               ; preds = %77
  call void @llvm.lifetime.start.p0(i64 8, ptr %11) #8
  %85 = load ptr, ptr %5, align 8, !tbaa !77
  %86 = getelementptr inbounds %struct.token_s, ptr %85, i64 2
  %87 = getelementptr inbounds nuw %struct.token_s, ptr %86, i32 0, i32 0
  %88 = load ptr, ptr %87, align 8, !tbaa !70
  %89 = load ptr, ptr %5, align 8, !tbaa !77
  %90 = getelementptr inbounds %struct.token_s, ptr %89, i64 2
  %91 = getelementptr inbounds nuw %struct.token_s, ptr %90, i32 0, i32 1
  %92 = load i64, ptr %91, align 8, !tbaa !79
  %93 = load ptr, ptr %4, align 8, !tbaa !4
  %94 = getelementptr inbounds nuw %struct.conn, ptr %93, i32 0, i32 44
  %95 = load ptr, ptr %94, align 8, !tbaa !32
  %96 = call ptr @item_get(ptr noundef %88, i64 noundef %92, ptr noundef %95, i1 noundef zeroext false)
  store ptr %96, ptr %11, align 8, !tbaa !27
  %97 = load ptr, ptr %11, align 8, !tbaa !27
  %98 = icmp eq ptr %97, null
  br i1 %98, label %99, label %101

99:                                               ; preds = %84
  %100 = load ptr, ptr %4, align 8, !tbaa !4
  call void @out_string(ptr noundef %100, ptr noundef @.str.128)
  store i32 1, ptr %10, align 4
  br label %104

101:                                              ; preds = %84
  %102 = load ptr, ptr %11, align 8, !tbaa !27
  call void @do_item_remove(ptr noundef %102)
  %103 = load ptr, ptr %11, align 8, !tbaa !27
  call void @do_item_remove(ptr noundef %103)
  store i32 0, ptr %10, align 4
  br label %104

104:                                              ; preds = %101, %99
  call void @llvm.lifetime.end.p0(i64 8, ptr %11) #8
  %105 = load i32, ptr %10, align 4
  switch i32 %105, label %115 [
    i32 0, label %106
    i32 1, label %114
  ]

106:                                              ; preds = %104
  br label %109

107:                                              ; preds = %77
  %108 = load ptr, ptr %4, align 8, !tbaa !4
  call void @out_string(ptr noundef %108, ptr noundef @.str.15)
  br label %114

109:                                              ; preds = %106
  br label %110

110:                                              ; preds = %109, %76
  br label %111

111:                                              ; preds = %110, %37
  br label %112

112:                                              ; preds = %111, %18
  %113 = load ptr, ptr %4, align 8, !tbaa !4
  call void @out_string(ptr noundef %113, ptr noundef @.str.98)
  br label %114

114:                                              ; preds = %112, %107, %104, %74
  ret void

115:                                              ; preds = %104, %74
  unreachable
}