; Function Attrs: nounwind uwtable
define internal fastcc void @process_debugitem_command(ptr noundef %0, ptr noundef nonnull readonly captures(none) %1) unnamed_addr #0 {
  %3 = getelementptr inbounds nuw i8, ptr %1, i64 16
  %4 = load ptr, ptr %3, align 8, !tbaa !66
  %5 = tail call i32 @strcmp(ptr noundef nonnull dereferenceable(1) %4, ptr noundef nonnull dereferenceable(5) @.str.125) #14
  %6 = icmp eq i32 %5, 0
  br i1 %6, label %7, label %14

7:                                                ; preds = %2
  %8 = load ptr, ptr @hash, align 8, !tbaa !114
  %9 = getelementptr inbounds nuw i8, ptr %1, i64 32
  %10 = load ptr, ptr %9, align 8, !tbaa !66
  %11 = getelementptr inbounds nuw i8, ptr %1, i64 40
  %12 = load i64, ptr %11, align 8, !tbaa !68
  %13 = tail call i32 %8(ptr noundef %10, i64 noundef %12) #13
  tail call void @item_lock(i32 noundef %13) #13
  br label %.thread

14:                                               ; preds = %2
  %15 = tail call i32 @strcmp(ptr noundef nonnull dereferenceable(1) %4, ptr noundef nonnull dereferenceable(7) @.str.126) #14
  %16 = icmp eq i32 %15, 0
  br i1 %16, label %17, label %24

17:                                               ; preds = %14
  %18 = load ptr, ptr @hash, align 8, !tbaa !114
  %19 = getelementptr inbounds nuw i8, ptr %1, i64 32
  %20 = load ptr, ptr %19, align 8, !tbaa !66
  %21 = getelementptr inbounds nuw i8, ptr %1, i64 40
  %22 = load i64, ptr %21, align 8, !tbaa !68
  %23 = tail call i32 %18(ptr noundef %20, i64 noundef %22) #13
  tail call void @item_unlock(i32 noundef %23) #13
  br label %.thread

24:                                               ; preds = %14
  %25 = tail call i32 @strcmp(ptr noundef nonnull dereferenceable(1) %4, ptr noundef nonnull dereferenceable(4) @.str.127) #14
  %26 = icmp eq i32 %25, 0
  br i1 %26, label %27, label %36

27:                                               ; preds = %24
  %28 = getelementptr inbounds nuw i8, ptr %1, i64 32
  %29 = load ptr, ptr %28, align 8, !tbaa !66
  %30 = getelementptr inbounds nuw i8, ptr %1, i64 40
  %31 = load i64, ptr %30, align 8, !tbaa !68
  %32 = getelementptr inbounds nuw i8, ptr %0, i64 400
  %33 = load ptr, ptr %32, align 8, !tbaa !28
  %34 = tail call ptr @item_get(ptr noundef %29, i64 noundef %31, ptr noundef %33, i1 noundef zeroext false) #13
  %35 = icmp eq ptr %34, null
  br i1 %35, label %48, label %.thread

36:                                               ; preds = %24
  %37 = tail call i32 @strcmp(ptr noundef nonnull dereferenceable(1) %4, ptr noundef nonnull dereferenceable(6) @.str.129) #14
  %38 = icmp eq i32 %37, 0
  br i1 %38, label %39, label %48

39:                                               ; preds = %36
  %40 = getelementptr inbounds nuw i8, ptr %1, i64 32
  %41 = load ptr, ptr %40, align 8, !tbaa !66
  %42 = getelementptr inbounds nuw i8, ptr %1, i64 40
  %43 = load i64, ptr %42, align 8, !tbaa !68
  %44 = getelementptr inbounds nuw i8, ptr %0, i64 400
  %45 = load ptr, ptr %44, align 8, !tbaa !28
  %46 = tail call ptr @item_get(ptr noundef %41, i64 noundef %43, ptr noundef %45, i1 noundef zeroext false) #13
  %47 = icmp eq ptr %46, null
  br i1 %47, label %48, label %.thread29

.thread29:                                        ; preds = %39
  tail call void @do_item_remove(ptr noundef nonnull %46) #13
  tail call void @do_item_remove(ptr noundef nonnull %46) #13
  br label %.thread

.thread:                                          ; preds = %27, %.thread29, %17, %7
  br label %48

48:                                               ; preds = %36, %39, %27, %.thread
  %.str.128.sink = phi ptr [ @.str.98, %.thread ], [ @.str.128, %27 ], [ @.str.128, %39 ], [ @.str.15, %36 ]
  tail call void @out_string(ptr noundef %0, ptr noundef nonnull %.str.128.sink) #13
  ret void
}